target datalayout = "e-m:e-p270:32:32-p271:32:32-p272:64:64-i64:64-i128:128-f80:128-n8:16:32:64-S128"
target triple = "x86_64-pc-linux-gnu"

; Function Attrs: mustprogress nounwind uwtable
define hidden noundef i32 @_ZN5boost6locale8impl_icu21date_flags_to_icu_lenEm(i64 noundef %0) #3 {
  %2 = alloca i32, align 4
  %3 = alloca i64, align 8
  store i64 %0, ptr %3, align 8, !tbaa !7
  %4 = load i64, ptr %3, align 8, !tbaa !7
  switch i64 %4, label %10 [
    i64 1024, label %5
    i64 2048, label %6
    i64 3072, label %7
    i64 4096, label %8
    i64 0, label %9
  ]

5:                                                ; preds = %1
  store i32 3, ptr %2, align 4
  br label %11

6:                                                ; preds = %1
  store i32 2, ptr %2, align 4
  br label %11

7:                                                ; preds = %1
  store i32 1, ptr %2, align 4
  br label %11

8:                                                ; preds = %1
  store i32 0, ptr %2, align 4
  br label %11

9:                                                ; preds = %1
  br label %10

10:                                               ; preds = %1, %9
  store i32 2, ptr %2, align 4
  br label %11

11:                                               ; preds = %10, %8, %7, %6, %5
  %12 = load i32, ptr %2, align 4
  ret i32 %12
}